target datalayout = "e-m:e-p270:32:32-p271:32:32-p272:64:64-i64:64-i128:128-f80:128-n8:16:32:64-S128"
target triple = "x86_64-pc-linux-gnu"

; Function Attrs: mustprogress nounwind uwtable
define linkonce_odr hidden noundef ptr @_ZN4llvm15ScalarEvolution7getZeroEPNS_4TypeE(ptr noundef nonnull align 8 dereferenceable(1392) %0, ptr noundef %1) #0 comdat align 2 {
  %3 = alloca ptr, align 8
  %4 = alloca ptr, align 8
  store ptr %0, ptr %3, align 8
  store ptr %1, ptr %4, align 8
  %5 = load ptr, ptr %3, align 8
  %6 = load ptr, ptr %4, align 8
  %7 = call noundef ptr @_ZN4llvm15ScalarEvolution11getConstantEPNS_4TypeEmb(ptr noundef nonnull align 8 dereferenceable(1392) %5, ptr noundef %6, i64 noundef 0, i1 noundef zeroext false)
  ret ptr %7
}

; Function Attrs: mustprogress nounwind uwtable
define dso_local noundef zeroext i1 @_ZN4llvm24isKnownNonNegativeInLoopEPKNS_4SCEVEPKNS_4LoopERNS_15ScalarEvolutionE(ptr noundef %0, ptr noundef %1, ptr noundef nonnull align 8 dereferenceable(1392) %2) #0 {
  %4 = alloca ptr, align 8
  %5 = alloca ptr, align 8
  %6 = alloca ptr, align 8
  %7 = alloca ptr, align 8
  store ptr %0, ptr %4, align 8
  store ptr %1, ptr %5, align 8
  store ptr %2, ptr %6, align 8
  %8 = load ptr, ptr %6, align 8
  %9 = load ptr, ptr %4, align 8
  %10 = call noundef ptr @_ZNK4llvm4SCEV7getTypeEv(ptr noundef nonnull align 8 dereferenceable(30) %9)
  %11 = call noundef ptr @_ZN4llvm15ScalarEvolution7getZeroEPNS_4TypeE(ptr noundef nonnull align 8 dereferenceable(1392) %8, ptr noundef %10)
  store ptr %11, ptr %7, align 8
  %12 = load ptr, ptr %6, align 8
  %13 = load ptr, ptr %4, align 8
  %14 = load ptr, ptr %5, align 8
  %15 = call noundef zeroext i1 @_ZN4llvm15ScalarEvolution22isAvailableAtLoopEntryEPKNS_4SCEVEPKNS_4LoopE(ptr noundef nonnull align 8 dereferenceable(1392) %12, ptr noundef %13, ptr noundef %14)
  br i1 %15, label %16, label %22

16:                                               ; preds = %3
  %17 = load ptr, ptr %6, align 8
  %18 = load ptr, ptr %5, align 8
  %19 = load ptr, ptr %4, align 8
  %20 = load ptr, ptr %7, align 8
  %21 = call noundef zeroext i1 @_ZN4llvm15ScalarEvolution24isLoopEntryGuardedByCondEPKNS_4LoopENS_7CmpInst9PredicateEPKNS_4SCEVES8_(ptr noundef nonnull align 8 dereferenceable(1392) %17, ptr noundef %18, i32 noundef 39, ptr noundef %19, ptr noundef %20)
  br label %22

22:                                               ; preds = %16, %3
  %23 = phi i1 [ false, %3 ], [ %21, %16 ]
  ret i1 %23
}